; Function Attrs: nounwind uwtable
define internal range(i32 0, 2) i32 @b64_free(ptr noundef %0) #2 {
  %2 = icmp eq ptr %0, null
  br i1 %2, label %9, label %3

3:                                                ; preds = %1
  %4 = tail call ptr @BIO_get_data(ptr noundef nonnull %0) #8
  %5 = icmp eq ptr %4, null
  br i1 %5, label %9, label %6

6:                                                ; preds = %3
  %7 = getelementptr inbounds nuw i8, ptr %4, i64 32
  %8 = load ptr, ptr %7, align 8, !tbaa !13
  tail call void @EVP_ENCODE_CTX_free(ptr noundef %8) #8
  tail call void @CRYPTO_free(ptr noundef nonnull %4, ptr noundef nonnull @.str.3, i32 noundef 99) #8
  tail call void @BIO_set_data(ptr noundef nonnull %0, ptr noundef null) #8
  tail call void @BIO_set_init(ptr noundef nonnull %0, i32 noundef 0) #8
  br label %9

9:                                                ; preds = %3, %1, %6
  %.0 = phi i32 [ 1, %6 ], [ 0, %1 ], [ 0, %3 ]
  ret i32 %.0
}